Certificate:
    Data:
        Version: 3 (0x2)
        Serial Number: 1 (0x1)
        Signature Algorithm: dsaWithSHA1
        Issuer: C=CC, ST=State, L=Location, O=Organization, CN=dsa.mitls.org/emailAddress=root@mitls.org
        Validity
            Not Before: Jan  5 10:12:02 2018 GMT
            Not After : Mar 24 10:12:02 2026 GMT
        Subject: C=CC, ST=State, O=Organization, CN=dsa.cert.mitls.org/emailAddress=root@mitls.org
        Subject Public Key Info:
            Public Key Algorithm: dsaEncryption
            DSA Public Key:
                pub: 
                    6c:89:42:b6:8d:88:38:87:fa:97:e7:0e:48:f1:b0:
                    70:56:a5:6d:cf:fe:fe:7c:31:dd:9c:d0:78:6a:d9:
                    a9:cc:58:46:52:e8:d8:0a:f0:20:2d:ee:06:46:2c:
                    31:5e:f6:6d:4f:93:ca:d4:df:14:1d:7d:c5:a7:4f:
                    25:75:15:b5:9c:cb:fb:8b:a9:9c:96:e8:56:b9:6b:
                    77:70:a3:e4:3e:f2:42:07:1b:ba:ff:5a:01:14:4a:
                    9d:39:cb:01:27:90:95:a1:d3:00:e6:5d:23:19:3e:
                    06:bd:82:d3:8c:57:36:e3:3b:07:d3:06:3b:5f:d8:
                    10:b3:16:f7:ef:b2:54:db
                P:   
                    00:b3:43:a0:8c:54:d1:2b:19:98:ca:c5:01:b7:d1:
                    eb:c0:16:ed:4e:7a:72:10:ac:91:3b:eb:61:0e:4e:
                    60:db:50:f7:d1:f2:33:91:cc:3d:d4:75:58:36:fc:
                    1a:4c:a7:1b:52:e0:8f:a3:46:38:26:be:4d:b3:a7:
                    33:9c:4e:ae:ad:d6:ea:6c:ac:09:29:88:7d:9c:c4:
                    5b:2b:ba:04:d3:3f:40:7f:29:f7:ef:23:e2:66:0f:
                    9b:12:e4:81:b4:b3:67:cb:6c:c2:e6:0a:22:83:18:
                    36:2d:e7:01:e6:bd:b9:e4:72:96:9c:aa:e6:b2:59:
                    ce:b3:eb:cc:93:de:9d:3c:c7
                Q:   
                    00:e6:b9:22:ab:a2:1c:3d:c9:64:2a:3a:53:bd:db:
                    e1:55:ca:56:12:0d
                G:   
                    6e:0c:f8:36:13:71:c3:a2:ef:90:c0:ef:c6:fb:cc:
                    64:55:0b:41:a3:b2:a1:03:82:32:c5:f3:b6:9a:d2:
                    05:ea:e5:60:51:9f:54:83:ff:aa:92:c1:ca:22:63:
                    de:e3:82:83:9c:48:50:bb:81:a3:fa:eb:08:9b:ac:
                    7a:0e:2f:75:58:ad:17:a3:42:e8:7c:58:1e:03:89:
                    e6:55:83:7e:58:6b:63:fe:8a:0a:ea:51:18:aa:ff:
                    6c:23:76:22:0c:e3:c9:49:08:95:06:31:69:da:7c:
                    19:45:f6:40:37:a6:92:24:a5:3b:f0:a9:d6:c3:d7:
                    01:27:71:99:1f:9d:24:1d
        X509v3 extensions:
            X509v3 Key Usage: 
                Digital Signature, Non Repudiation, Key Encipherment
            X509v3 Basic Constraints: 
                CA:FALSE
            Netscape Comment: 
                OpenSSL Generated Certificate
    Signature Algorithm: dsaWithSHA1
        30:2d:02:15:00:e0:8b:4b:77:03:c4:61:bb:ac:e6:f9:13:68:
        14:ef:22:71:be:ac:8b:02:14:70:d2:a9:ce:d1:c3:37:e8:4c:
        79:dc:8e:22:1b:79:a2:89:83:7d:da
-----BEGIN CERTIFICATE-----
MIIDajCCAymgAwIBAgIBATAJBgcqhkjOOAQDMH4xCzAJBgNVBAYTAkNDMQ4wDAYD
VQQIDAVTdGF0ZTERMA8GA1UEBwwITG9jYXRpb24xFTATBgNVBAoMDE9yZ2FuaXph
dGlvbjEWMBQGA1UEAwwNZHNhLm1pdGxzLm9yZzEdMBsGCSqGSIb3DQEJARYOcm9v
dEBtaXRscy5vcmcwHhcNMTgwMTA1MTAxMjAyWhcNMjYwMzI0MTAxMjAyWjBwMQsw
CQYDVQQGEwJDQzEOMAwGA1UECAwFU3RhdGUxFTATBgNVBAoMDE9yZ2FuaXphdGlv
bjEbMBkGA1UEAwwSZHNhLmNlcnQubWl0bHMub3JnMR0wGwYJKoZIhvcNAQkBFg5y
b290QG1pdGxzLm9yZzCCAbYwggErBgcqhkjOOAQBMIIBHgKBgQCzQ6CMVNErGZjK
xQG30evAFu1OenIQrJE762EOTmDbUPfR8jORzD3UdVg2/BpMpxtS4I+jRjgmvk2z
pzOcTq6t1upsrAkpiH2cxFsrugTTP0B/KffvI+JmD5sS5IG0s2fLbMLmCiKDGDYt
5wHmvbnkcpacquayWc6z68yT3p08xwIVAOa5IquiHD3JZCo6U73b4VXKVhINAoGA
bgz4NhNxw6LvkMDvxvvMZFULQaOyoQOCMsXztprSBerlYFGfVIP/qpLByiJj3uOC
g5xIULuBo/rrCJuseg4vdVitF6NC6HxYHgOJ5lWDflhrY/6KCupRGKr/bCN2Igzj
yUkIlQYxadp8GUX2QDemkiSlO/Cp1sPXASdxmR+dJB0DgYQAAoGAbIlCto2IOIf6
l+cOSPGwcFalbc/+/nwx3ZzQeGrZqcxYRlLo2ArwIC3uBkYsMV72bU+TytTfFB19
xadPJXUVtZzL+4upnJboVrlrd3Cj5D7yQgcbuv9aARRKnTnLASeQlaHTAOZdIxk+
Br2C04xXNuM7B9MGO1/YELMW9++yVNujSDBGMAsGA1UdDwQEAwIF4DAJBgNVHRME
AjAAMCwGCWCGSAGG+EIBDQQfFh1PcGVuU1NMIEdlbmVyYXRlZCBDZXJ0aWZpY2F0
ZTAJBgcqhkjOOAQDAzAAMC0CFQDgi0t3A8Rhu6zm+RNoFO8icb6siwIUcNKpztHD
N+hMedyOIht5oomDfdo=
-----END CERTIFICATE-----
