Certificate:
    Data:
        Version: 3 (0x2)
        Serial Number: 1 (0x1)
        Signature Algorithm: sha1WithRSAEncryption
        Issuer: C=CC, ST=State, L=Location, O=Organization, CN=rsa.mitls.org/emailAddress=root@mitls.org
        Validity
            Not Before: Jan  5 10:11:58 2018 GMT
            Not After : Mar 24 10:11:58 2026 GMT
        Subject: C=CC, ST=State, O=Organization, CN=rsa.cert.mitls.org/emailAddress=root@mitls.org
        Subject Public Key Info:
            Public Key Algorithm: rsaEncryption
            RSA Public Key: (1024 bit)
                Modulus (1024 bit):
                    00:dd:e9:1c:d3:4c:23:12:72:8a:fb:93:33:54:45:
                    ef:9f:07:c0:d2:26:dd:d8:05:9d:29:4c:09:e1:74:
                    ed:ab:11:bc:32:d6:87:2f:27:fa:66:f3:48:75:bf:
                    8c:fe:b1:8c:6d:d3:f1:e2:b2:22:ca:f7:ae:c0:4e:
                    bb:8f:7e:3f:81:2e:4c:79:79:81:8a:a4:0e:8b:3e:
                    62:cf:eb:e7:13:66:cd:b0:88:0f:0b:43:13:93:3e:
                    b4:dd:29:cb:39:c3:3d:b7:a0:65:8a:c3:73:8d:e7:
                    7e:1a:54:45:19:bf:f9:c0:88:4b:40:88:f3:f3:06:
                    d1:81:56:7e:bc:b5:95:41:bf
                Exponent: 65537 (0x10001)
        X509v3 extensions:
            X509v3 Key Usage: 
                Digital Signature, Non Repudiation, Key Encipherment
            X509v3 Basic Constraints: 
                CA:FALSE
            Netscape Comment: 
                OpenSSL Generated Certificate
    Signature Algorithm: sha1WithRSAEncryption
        92:93:ac:1a:86:28:1d:af:a6:8b:b3:94:d4:e4:ab:8f:1e:75:
        95:bf:29:5f:66:bf:b3:01:8f:71:5b:a0:95:8e:2b:b7:97:e0:
        6f:13:58:2c:fe:8e:f6:0e:13:2f:61:b7:2d:f7:0d:74:f8:7b:
        04:4d:65:3f:41:9c:92:9f:c3:5c:70:08:b7:85:2f:1d:e5:f5:
        9f:f4:f7:ad:6c:4e:5a:23:32:0c:f0:2a:06:c9:91:e5:34:aa:
        39:c4:0c:c2:f6:c6:28:c9:84:15:97:7f:f6:44:bb:55:77:aa:
        04:a4:3c:7c:0e:77:71:c1:f2:88:fc:b3:3e:28:02:b1:09:bb:
        7b:11
-----BEGIN CERTIFICATE-----
MIICrDCCAhWgAwIBAgIBATANBgkqhkiG9w0BAQUFADB+MQswCQYDVQQGEwJDQzEO
MAwGA1UECAwFU3RhdGUxETAPBgNVBAcMCExvY2F0aW9uMRUwEwYDVQQKDAxPcmdh
bml6YXRpb24xFjAUBgNVBAMMDXJzYS5taXRscy5vcmcxHTAbBgkqhkiG9w0BCQEW
DnJvb3RAbWl0bHMub3JnMB4XDTE4MDEwNTEwMTE1OFoXDTI2MDMyNDEwMTE1OFow
cDELMAkGA1UEBhMCQ0MxDjAMBgNVBAgMBVN0YXRlMRUwEwYDVQQKDAxPcmdhbml6
YXRpb24xGzAZBgNVBAMMEnJzYS5jZXJ0Lm1pdGxzLm9yZzEdMBsGCSqGSIb3DQEJ
ARYOcm9vdEBtaXRscy5vcmcwgZ8wDQYJKoZIhvcNAQEBBQADgY0AMIGJAoGBAN3p
HNNMIxJyivuTM1RF758HwNIm3dgFnSlMCeF07asRvDLWhy8n+mbzSHW/jP6xjG3T
8eKyIsr3rsBOu49+P4EuTHl5gYqkDos+Ys/r5xNmzbCIDwtDE5M+tN0pyznDPbeg
ZYrDc43nfhpURRm/+cCIS0CI8/MG0YFWfry1lUG/AgMBAAGjSDBGMAsGA1UdDwQE
AwIF4DAJBgNVHRMEAjAAMCwGCWCGSAGG+EIBDQQfFh1PcGVuU1NMIEdlbmVyYXRl
ZCBDZXJ0aWZpY2F0ZTANBgkqhkiG9w0BAQUFAAOBgQCSk6wahigdr6aLs5TU5KuP
HnWVvylfZr+zAY9xW6CVjiu3l+BvE1gs/o72DhMvYbct9w10+HsETWU/QZySn8Nc
cAi3hS8d5fWf9PetbE5aIzIM8CoGyZHlNKo5xAzC9sYoyYQVl3/2RLtVd6oEpDx8
DndxwfKI/LM+KAKxCbt7EQ==
-----END CERTIFICATE-----
